target datalayout = "e-m:e-p270:32:32-p271:32:32-p272:64:64-i64:64-i128:128-f80:128-n8:16:32:64-S128"
target triple = "x86_64-pc-linux-gnu"

%struct._GArray = type { ptr, i32 }
%struct.erf_meta_tag = type { i16, i16, ptr }
%struct._GPtrArray = type { ptr, i32 }
%struct.wtap_dumper = type { ptr, i32, i32, i32, i32, i8, i64, ptr, ptr, ptr, ptr, ptr, ptr, ptr, ptr, ptr, ptr, ptr, ptr, ptr, i32, i32, i32 }
%struct.erf_meta_section = type { i16, i16, i16, ptr }

; Function Attrs: nounwind null_pointer_is_valid sspstrong uwtable
define internal void @erf_populate_section_length_by_tags(ptr noundef %0) #6 {
  %2 = alloca ptr, align 8
  %3 = alloca i32, align 4
  %4 = alloca ptr, align 8
  store ptr %0, ptr %2, align 8
  call void @llvm.lifetime.start.p0(i64 4, ptr %3) #16
  store i32 0, ptr %3, align 4
  call void @llvm.lifetime.start.p0(i64 8, ptr %4) #16
  %5 = load ptr, ptr %2, align 8
  %6 = getelementptr inbounds nuw %struct.erf_meta_section, ptr %5, i32 0, i32 2
  store i16 8, ptr %6, align 4
  br label %7

7:                                                ; preds = %38, %1
  %8 = load i32, ptr %3, align 4
  %9 = load ptr, ptr %2, align 8
  %10 = getelementptr inbounds nuw %struct.erf_meta_section, ptr %9, i32 0, i32 3
  %11 = load ptr, ptr %10, align 8
  %12 = getelementptr inbounds nuw %struct._GPtrArray, ptr %11, i32 0, i32 1
  %13 = load i32, ptr %12, align 8
  %14 = icmp ult i32 %8, %13
  br i1 %14, label %15, label %41

15:                                               ; preds = %7
  %16 = load ptr, ptr %2, align 8
  %17 = getelementptr inbounds nuw %struct.erf_meta_section, ptr %16, i32 0, i32 3
  %18 = load ptr, ptr %17, align 8
  %19 = getelementptr inbounds nuw %struct._GPtrArray, ptr %18, i32 0, i32 0
  %20 = load ptr, ptr %19, align 8
  %21 = load i32, ptr %3, align 4
  %22 = zext i32 %21 to i64
  %23 = getelementptr ptr, ptr %20, i64 %22
  %24 = load ptr, ptr %23, align 8
  store ptr %24, ptr %4, align 8
  %25 = load ptr, ptr %4, align 8
  %26 = getelementptr inbounds nuw %struct.erf_meta_tag, ptr %25, i32 0, i32 1
  %27 = load i16, ptr %26, align 2
  %28 = zext i16 %27 to i32
  %29 = add i32 %28, 3
  %30 = and i32 %29, -4
  %31 = add i32 %30, 4
  %32 = load ptr, ptr %2, align 8
  %33 = getelementptr inbounds nuw %struct.erf_meta_section, ptr %32, i32 0, i32 2
  %34 = load i16, ptr %33, align 4
  %35 = zext i16 %34 to i32
  %36 = add i32 %35, %31
  %37 = trunc i32 %36 to i16
  store i16 %37, ptr %33, align 4
  br label %38

38:                                               ; preds = %15
  %39 = load i32, ptr %3, align 4
  %40 = add i32 %39, 1
  store i32 %40, ptr %3, align 4
  br label %7, !llvm.loop !49

41:                                               ; preds = %7
  call void @llvm.lifetime.end.p0(i64 8, ptr %4) #16
  call void @llvm.lifetime.end.p0(i64 4, ptr %3) #16
  ret void
}

; Function Attrs: null_pointer_is_valid sspstrong uwtable
define internal zeroext i1 @erf_wtap_blocks_to_erf_sections(ptr noundef %0, ptr noundef %1, i16 noundef zeroext %2, i16 noundef zeroext %3, ptr noundef %4) #0 {
  %6 = alloca i1, align 1
  %7 = alloca ptr, align 8
  %8 = alloca ptr, align 8
  %9 = alloca i16, align 2
  %10 = alloca i16, align 2
  %11 = alloca ptr, align 8
  %12 = alloca ptr, align 8
  %13 = alloca i64, align 8
  %14 = alloca i64, align 8
  %15 = alloca ptr, align 8
  %16 = alloca ptr, align 8
  store ptr %0, ptr %7, align 8
  store ptr %1, ptr %8, align 8
  store i16 %2, ptr %9, align 2
  store i16 %3, ptr %10, align 2
  store ptr %4, ptr %11, align 8
  %17 = load ptr, ptr %7, align 8
  %18 = icmp ne ptr %17, null
  br i1 %18, label %19, label %25

19:                                               ; preds = %5
  %20 = load ptr, ptr %8, align 8
  %21 = icmp ne ptr %20, null
  br i1 %21, label %22, label %25

22:                                               ; preds = %19
  %23 = load ptr, ptr %11, align 8
  %24 = icmp ne ptr %23, null
  br i1 %24, label %26, label %25

25:                                               ; preds = %22, %19, %5
  store i1 false, ptr %6, align 1
  br label %72

26:                                               ; preds = %22
  call void @llvm.lifetime.start.p0(i64 8, ptr %12) #16
  call void @llvm.lifetime.start.p0(i64 8, ptr %13) #16
  store i64 1, ptr %13, align 8
  call void @llvm.lifetime.start.p0(i64 8, ptr %14) #16
  store i64 16, ptr %14, align 8
  call void @llvm.lifetime.start.p0(i64 8, ptr %15) #16
  %27 = load i64, ptr %14, align 8
  %28 = icmp eq i64 %27, 1
  br i1 %28, label %29, label %32

29:                                               ; preds = %26
  %30 = load i64, ptr %13, align 8
  %31 = call noalias ptr @g_malloc(i64 noundef %30) #17
  store ptr %31, ptr %15, align 8
  br label %53

32:                                               ; preds = %26
  %33 = load i64, ptr %13, align 8
  %34 = call i1 @llvm.is.constant.i64(i64 %33)
  br i1 %34, label %35, label %48

35:                                               ; preds = %32
  %36 = load i64, ptr %14, align 8
  %37 = icmp eq i64 %36, 0
  br i1 %37, label %43, label %38

38:                                               ; preds = %35
  %39 = load i64, ptr %13, align 8
  %40 = load i64, ptr %14, align 8
  %41 = udiv i64 -1, %40
  %42 = icmp ule i64 %39, %41
  br i1 %42, label %43, label %48

43:                                               ; preds = %38, %35
  %44 = load i64, ptr %13, align 8
  %45 = load i64, ptr %14, align 8
  %46 = mul i64 %44, %45
  %47 = call noalias ptr @g_malloc(i64 noundef %46) #17
  store ptr %47, ptr %15, align 8
  br label %52

48:                                               ; preds = %38, %32
  %49 = load i64, ptr %13, align 8
  %50 = load i64, ptr %14, align 8
  %51 = call noalias ptr @g_malloc_n(i64 noundef %49, i64 noundef %50) #18
  store ptr %51, ptr %15, align 8
  br label %52

52:                                               ; preds = %48, %43
  br label %53

53:                                               ; preds = %52, %29
  %54 = load ptr, ptr %15, align 8
  store ptr %54, ptr %16, align 8
  call void @llvm.lifetime.end.p0(i64 8, ptr %15) #16
  call void @llvm.lifetime.end.p0(i64 8, ptr %14) #16
  call void @llvm.lifetime.end.p0(i64 8, ptr %13) #16
  %55 = load ptr, ptr %16, align 8
  store ptr %55, ptr %12, align 8
  %56 = call ptr @g_ptr_array_new_with_free_func(ptr noundef @erf_meta_tag_free)
  %57 = load ptr, ptr %12, align 8
  %58 = getelementptr inbounds nuw %struct.erf_meta_section, ptr %57, i32 0, i32 3
  store ptr %56, ptr %58, align 8
  %59 = load i16, ptr %9, align 2
  %60 = load ptr, ptr %12, align 8
  %61 = getelementptr inbounds nuw %struct.erf_meta_section, ptr %60, i32 0, i32 0
  store i16 %59, ptr %61, align 8
  %62 = load i16, ptr %10, align 2
  %63 = load ptr, ptr %12, align 8
  %64 = getelementptr inbounds nuw %struct.erf_meta_section, ptr %63, i32 0, i32 1
  store i16 %62, ptr %64, align 2
  %65 = load ptr, ptr %7, align 8
  %66 = load ptr, ptr %11, align 8
  %67 = load ptr, ptr %12, align 8
  %68 = call zeroext i1 @wtap_block_foreach_option(ptr noundef %65, ptr noundef %66, ptr noundef %67)
  %69 = load ptr, ptr %12, align 8
  call void @erf_populate_section_length_by_tags(ptr noundef %69)
  %70 = load ptr, ptr %8, align 8
  %71 = load ptr, ptr %12, align 8
  call void @g_ptr_array_add(ptr noundef %70, ptr noundef %71)
  store i1 true, ptr %6, align 1
  call void @llvm.lifetime.end.p0(i64 8, ptr %12) #16
  br label %72

72:                                               ; preds = %53, %25
  %73 = load i1, ptr %6, align 1
  ret i1 %73
}

; Function Attrs: null_pointer_is_valid sspstrong uwtable
define internal zeroext i1 @erf_wtap_info_to_sections(ptr noundef %0, ptr noundef %1) #0 {
  %3 = alloca ptr, align 8
  %4 = alloca ptr, align 8
  %5 = alloca ptr, align 8
  %6 = alloca i32, align 4
  store ptr %0, ptr %3, align 8
  store ptr %1, ptr %4, align 8
  call void @llvm.lifetime.start.p0(i64 8, ptr %5) #16
  call void @llvm.lifetime.start.p0(i64 4, ptr %6) #16
  store i32 0, ptr %6, align 4
  %7 = load ptr, ptr %3, align 8
  %8 = getelementptr inbounds nuw %struct.wtap_dumper, ptr %7, i32 0, i32 13
  %9 = load ptr, ptr %8, align 8
  %10 = getelementptr inbounds nuw %struct._GArray, ptr %9, i32 0, i32 0
  %11 = load ptr, ptr %10, align 8
  %12 = getelementptr ptr, ptr %11, i64 0
  %13 = load ptr, ptr %12, align 8
  store ptr %13, ptr %5, align 8
  %14 = load ptr, ptr %5, align 8
  %15 = load ptr, ptr %4, align 8
  %16 = call zeroext i1 @erf_wtap_blocks_to_erf_sections(ptr noundef %14, ptr noundef %15, i16 noundef zeroext -256, i16 noundef zeroext 0, ptr noundef @erf_write_wtap_option_to_capture_tag)
  %17 = load ptr, ptr %3, align 8
  %18 = getelementptr inbounds nuw %struct.wtap_dumper, ptr %17, i32 0, i32 13
  %19 = load ptr, ptr %18, align 8
  %20 = getelementptr inbounds nuw %struct._GArray, ptr %19, i32 0, i32 0
  %21 = load ptr, ptr %20, align 8
  %22 = getelementptr ptr, ptr %21, i64 0
  %23 = load ptr, ptr %22, align 8
  store ptr %23, ptr %5, align 8
  %24 = load ptr, ptr %5, align 8
  %25 = load ptr, ptr %4, align 8
  %26 = call zeroext i1 @erf_wtap_blocks_to_erf_sections(ptr noundef %24, ptr noundef %25, i16 noundef zeroext -255, i16 noundef zeroext 0, ptr noundef @erf_write_wtap_option_to_host_tag)
  store i32 0, ptr %6, align 4
  br label %27

27:                                               ; preds = %53, %2
  %28 = load i32, ptr %6, align 4
  %29 = load ptr, ptr %3, align 8
  %30 = getelementptr inbounds nuw %struct.wtap_dumper, ptr %29, i32 0, i32 15
  %31 = load ptr, ptr %30, align 8
  %32 = getelementptr inbounds nuw %struct._GArray, ptr %31, i32 0, i32 1
  %33 = load i32, ptr %32, align 8
  %34 = icmp ult i32 %28, %33
  br i1 %34, label %35, label %56

35:                                               ; preds = %27
  %36 = load ptr, ptr %3, align 8
  %37 = getelementptr inbounds nuw %struct.wtap_dumper, ptr %36, i32 0, i32 15
  %38 = load ptr, ptr %37, align 8
  %39 = getelementptr inbounds nuw %struct._GArray, ptr %38, i32 0, i32 0
  %40 = load ptr, ptr %39, align 8
  %41 = load i32, ptr %6, align 4
  %42 = zext i32 %41 to i64
  %43 = getelementptr ptr, ptr %40, i64 %42
  %44 = load ptr, ptr %43, align 8
  store ptr %44, ptr %5, align 8
  %45 = load ptr, ptr %5, align 8
  %46 = load ptr, ptr %4, align 8
  %47 = load i32, ptr %6, align 4
  %48 = trunc i32 %47 to i16
  %49 = sext i16 %48 to i32
  %50 = add i32 %49, 1
  %51 = trunc i32 %50 to i16
  %52 = call zeroext i1 @erf_wtap_blocks_to_erf_sections(ptr noundef %45, ptr noundef %46, i16 noundef zeroext -253, i16 noundef zeroext %51, ptr noundef @erf_write_wtap_option_to_interface_tag)
  br label %53

53:                                               ; preds = %35
  %54 = load i32, ptr %6, align 4
  %55 = add i32 %54, 1
  store i32 %55, ptr %6, align 4
  br label %27, !llvm.loop !44

56:                                               ; preds = %27
  call void @llvm.lifetime.end.p0(i64 4, ptr %6) #16
  call void @llvm.lifetime.end.p0(i64 8, ptr %5) #16
  ret i1 true
}