; Function Attrs: null_pointer_is_valid sspstrong uwtable
define internal fastcc void @erf_wtap_info_to_sections(ptr noundef readonly captures(none) %0, ptr noundef %1) unnamed_addr #0 {
  %3 = getelementptr inbounds nuw i8, ptr %0, i64 88
  %4 = load ptr, ptr %3, align 8
  %5 = load ptr, ptr %4, align 8
  %6 = load ptr, ptr %5, align 8
  %7 = icmp ne ptr %6, null
  %8 = icmp ne ptr %1, null
  %or.cond.i = and i1 %8, %7
  br i1 %or.cond.i, label %9, label %erf_wtap_blocks_to_erf_sections.exit

9:                                                ; preds = %2
  %10 = tail call noalias dereferenceable_or_null(16) ptr @g_malloc(i64 noundef 16) #15
  %11 = tail call ptr @g_ptr_array_new_with_free_func(ptr noundef nonnull @erf_meta_tag_free)
  %12 = getelementptr inbounds nuw i8, ptr %10, i64 8
  store ptr %11, ptr %12, align 8
  store i16 -256, ptr %10, align 8
  %13 = getelementptr inbounds nuw i8, ptr %10, i64 2
  store i16 0, ptr %13, align 2
  %14 = tail call zeroext i1 @wtap_block_foreach_option(ptr noundef nonnull %6, ptr noundef nonnull @erf_write_wtap_option_to_capture_tag, ptr noundef %10)
  %15 = getelementptr inbounds nuw i8, ptr %10, i64 4
  store i16 8, ptr %15, align 4
  %16 = load ptr, ptr %12, align 8
  %17 = getelementptr inbounds nuw i8, ptr %16, i64 8
  %18 = load i32, ptr %17, align 8
  %.not.i.i = icmp eq i32 %18, 0
  br i1 %.not.i.i, label %erf_populate_section_length_by_tags.exit.i, label %.lr.ph.i.i

.lr.ph.i.i:                                       ; preds = %9, %.lr.ph.i.i
  %19 = phi i16 [ %28, %.lr.ph.i.i ], [ 8, %9 ]
  %indvars.iv.i.i = phi i64 [ %indvars.iv.next.i.i, %.lr.ph.i.i ], [ 0, %9 ]
  %20 = load ptr, ptr %16, align 8
  %21 = getelementptr ptr, ptr %20, i64 %indvars.iv.i.i
  %22 = load ptr, ptr %21, align 8
  %23 = getelementptr inbounds nuw i8, ptr %22, i64 2
  %24 = load i16, ptr %23, align 2
  %25 = add i16 %24, 3
  %26 = and i16 %25, -4
  %27 = add i16 %19, 4
  %28 = add i16 %27, %26
  store i16 %28, ptr %15, align 4
  %indvars.iv.next.i.i = add nuw nsw i64 %indvars.iv.i.i, 1
  %29 = load i32, ptr %17, align 8
  %30 = zext i32 %29 to i64
  %31 = icmp samesign ult i64 %indvars.iv.next.i.i, %30
  br i1 %31, label %.lr.ph.i.i, label %erf_populate_section_length_by_tags.exit.i, !llvm.loop !42

erf_populate_section_length_by_tags.exit.i:       ; preds = %.lr.ph.i.i, %9
  tail call void @g_ptr_array_add(ptr noundef nonnull %1, ptr noundef %10)
  %.pre = load ptr, ptr %3, align 8
  %.pre31 = load ptr, ptr %.pre, align 8
  %.pre32 = load ptr, ptr %.pre31, align 8
  br label %erf_wtap_blocks_to_erf_sections.exit

erf_wtap_blocks_to_erf_sections.exit:             ; preds = %2, %erf_populate_section_length_by_tags.exit.i
  %32 = phi ptr [ %6, %2 ], [ %.pre32, %erf_populate_section_length_by_tags.exit.i ]
  %33 = icmp ne ptr %32, null
  %or.cond.i13 = and i1 %8, %33
  br i1 %or.cond.i13, label %34, label %erf_wtap_blocks_to_erf_sections.exit19

34:                                               ; preds = %erf_wtap_blocks_to_erf_sections.exit
  %35 = tail call noalias dereferenceable_or_null(16) ptr @g_malloc(i64 noundef 16) #15
  %36 = tail call ptr @g_ptr_array_new_with_free_func(ptr noundef nonnull @erf_meta_tag_free)
  %37 = getelementptr inbounds nuw i8, ptr %35, i64 8
  store ptr %36, ptr %37, align 8
  store i16 -255, ptr %35, align 8
  %38 = getelementptr inbounds nuw i8, ptr %35, i64 2
  store i16 0, ptr %38, align 2
  %39 = tail call zeroext i1 @wtap_block_foreach_option(ptr noundef nonnull %32, ptr noundef nonnull @erf_write_wtap_option_to_host_tag, ptr noundef %35)
  %40 = getelementptr inbounds nuw i8, ptr %35, i64 4
  store i16 8, ptr %40, align 4
  %41 = load ptr, ptr %37, align 8
  %42 = getelementptr inbounds nuw i8, ptr %41, i64 8
  %43 = load i32, ptr %42, align 8
  %.not.i.i14 = icmp eq i32 %43, 0
  br i1 %.not.i.i14, label %erf_populate_section_length_by_tags.exit.i18, label %.lr.ph.i.i15

.lr.ph.i.i15:                                     ; preds = %34, %.lr.ph.i.i15
  %44 = phi i16 [ %53, %.lr.ph.i.i15 ], [ 8, %34 ]
  %indvars.iv.i.i16 = phi i64 [ %indvars.iv.next.i.i17, %.lr.ph.i.i15 ], [ 0, %34 ]
  %45 = load ptr, ptr %41, align 8
  %46 = getelementptr ptr, ptr %45, i64 %indvars.iv.i.i16
  %47 = load ptr, ptr %46, align 8
  %48 = getelementptr inbounds nuw i8, ptr %47, i64 2
  %49 = load i16, ptr %48, align 2
  %50 = add i16 %49, 3
  %51 = and i16 %50, -4
  %52 = add i16 %44, 4
  %53 = add i16 %52, %51
  store i16 %53, ptr %40, align 4
  %indvars.iv.next.i.i17 = add nuw nsw i64 %indvars.iv.i.i16, 1
  %54 = load i32, ptr %42, align 8
  %55 = zext i32 %54 to i64
  %56 = icmp samesign ult i64 %indvars.iv.next.i.i17, %55
  br i1 %56, label %.lr.ph.i.i15, label %erf_populate_section_length_by_tags.exit.i18, !llvm.loop !42

erf_populate_section_length_by_tags.exit.i18:     ; preds = %.lr.ph.i.i15, %34
  tail call void @g_ptr_array_add(ptr noundef nonnull %1, ptr noundef %35)
  br label %erf_wtap_blocks_to_erf_sections.exit19

erf_wtap_blocks_to_erf_sections.exit19:           ; preds = %erf_wtap_blocks_to_erf_sections.exit, %erf_populate_section_length_by_tags.exit.i18
  %57 = getelementptr inbounds nuw i8, ptr %0, i64 104
  %58 = load ptr, ptr %57, align 8
  %59 = getelementptr inbounds nuw i8, ptr %58, i64 8
  %60 = load i32, ptr %59, align 8
  %.not = icmp ne i32 %60, 0
  %brmerge.not = and i1 %.not, %8
  br i1 %brmerge.not, label %.lr.ph.split, label %._crit_edge

.lr.ph.split:                                     ; preds = %erf_wtap_blocks_to_erf_sections.exit19, %erf_wtap_blocks_to_erf_sections.exit26
  %61 = phi ptr [ %90, %erf_wtap_blocks_to_erf_sections.exit26 ], [ %58, %erf_wtap_blocks_to_erf_sections.exit19 ]
  %indvars.iv = phi i64 [ %indvars.iv.next, %erf_wtap_blocks_to_erf_sections.exit26 ], [ 0, %erf_wtap_blocks_to_erf_sections.exit19 ]
  %62 = load ptr, ptr %61, align 8
  %63 = getelementptr ptr, ptr %62, i64 %indvars.iv
  %64 = load ptr, ptr %63, align 8
  %.not28 = icmp eq ptr %64, null
  br i1 %.not28, label %erf_wtap_blocks_to_erf_sections.exit26, label %65

65:                                               ; preds = %.lr.ph.split
  %66 = trunc i64 %indvars.iv to i16
  %67 = add i16 %66, 1
  %68 = tail call noalias dereferenceable_or_null(16) ptr @g_malloc(i64 noundef 16) #15
  %69 = tail call ptr @g_ptr_array_new_with_free_func(ptr noundef nonnull @erf_meta_tag_free)
  %70 = getelementptr inbounds nuw i8, ptr %68, i64 8
  store ptr %69, ptr %70, align 8
  store i16 -253, ptr %68, align 8
  %71 = getelementptr inbounds nuw i8, ptr %68, i64 2
  store i16 %67, ptr %71, align 2
  %72 = tail call zeroext i1 @wtap_block_foreach_option(ptr noundef nonnull %64, ptr noundef nonnull @erf_write_wtap_option_to_interface_tag, ptr noundef %68)
  %73 = getelementptr inbounds nuw i8, ptr %68, i64 4
  store i16 8, ptr %73, align 4
  %74 = load ptr, ptr %70, align 8
  %75 = getelementptr inbounds nuw i8, ptr %74, i64 8
  %76 = load i32, ptr %75, align 8
  %.not.i.i21 = icmp eq i32 %76, 0
  br i1 %.not.i.i21, label %erf_populate_section_length_by_tags.exit.i25, label %.lr.ph.i.i22

.lr.ph.i.i22:                                     ; preds = %65, %.lr.ph.i.i22
  %77 = phi i16 [ %86, %.lr.ph.i.i22 ], [ 8, %65 ]
  %indvars.iv.i.i23 = phi i64 [ %indvars.iv.next.i.i24, %.lr.ph.i.i22 ], [ 0, %65 ]
  %78 = load ptr, ptr %74, align 8
  %79 = getelementptr ptr, ptr %78, i64 %indvars.iv.i.i23
  %80 = load ptr, ptr %79, align 8
  %81 = getelementptr inbounds nuw i8, ptr %80, i64 2
  %82 = load i16, ptr %81, align 2
  %83 = add i16 %82, 3
  %84 = and i16 %83, -4
  %85 = add i16 %77, 4
  %86 = add i16 %85, %84
  store i16 %86, ptr %73, align 4
  %indvars.iv.next.i.i24 = add nuw nsw i64 %indvars.iv.i.i23, 1
  %87 = load i32, ptr %75, align 8
  %88 = zext i32 %87 to i64
  %89 = icmp samesign ult i64 %indvars.iv.next.i.i24, %88
  br i1 %89, label %.lr.ph.i.i22, label %erf_populate_section_length_by_tags.exit.i25, !llvm.loop !42

erf_populate_section_length_by_tags.exit.i25:     ; preds = %.lr.ph.i.i22, %65
  tail call void @g_ptr_array_add(ptr noundef nonnull %1, ptr noundef %68)
  %.pre33 = load ptr, ptr %57, align 8
  br label %erf_wtap_blocks_to_erf_sections.exit26

erf_wtap_blocks_to_erf_sections.exit26:           ; preds = %.lr.ph.split, %erf_populate_section_length_by_tags.exit.i25
  %90 = phi ptr [ %61, %.lr.ph.split ], [ %.pre33, %erf_populate_section_length_by_tags.exit.i25 ]
  %indvars.iv.next = add nuw nsw i64 %indvars.iv, 1
  %91 = getelementptr inbounds nuw i8, ptr %90, i64 8
  %92 = load i32, ptr %91, align 8
  %93 = zext i32 %92 to i64
  %94 = icmp samesign ult i64 %indvars.iv.next, %93
  br i1 %94, label %.lr.ph.split, label %._crit_edge, !llvm.loop !51

._crit_edge:                                      ; preds = %erf_wtap_blocks_to_erf_sections.exit26, %erf_wtap_blocks_to_erf_sections.exit19
  ret void
}